; Function Attrs: nounwind uwtable
define internal ptr @xorhmacsha2sig_to_EncryptedPrivateKeyInfo_pem_import_object(ptr readonly captures(none) %0, i32 noundef %1, ptr noundef %2) #0 {
xor_prov_get_keymgmt_new.exit.i:
  br label %3

3:                                                ; preds = %7, %xor_prov_get_keymgmt_new.exit.i
  %.0.i21.i = phi ptr [ @xor_xorhmacsha2sig_keymgmt_functions, %xor_prov_get_keymgmt_new.exit.i ], [ %8, %7 ]
  %4 = load i32, ptr %.0.i21.i, align 8, !tbaa !19
  switch i32 %4, label %7 [
    i32 0, label %xor_prov_get_keymgmt_free.exit.i
    i32 10, label %5
  ]

5:                                                ; preds = %3
  %6 = getelementptr i8, ptr %.0.i21.i, i64 8
  %.0.val.i22.i = load ptr, ptr %6, align 8, !tbaa !21
  br label %xor_prov_get_keymgmt_free.exit.i

7:                                                ; preds = %3
  %8 = getelementptr inbounds nuw i8, ptr %.0.i21.i, i64 16
  br label %3, !llvm.loop !65

xor_prov_get_keymgmt_free.exit.i:                 ; preds = %3, %5
  %.05.i23.i = phi ptr [ %.0.val.i22.i, %5 ], [ null, %3 ]
  br label %9

9:                                                ; preds = %11, %xor_prov_get_keymgmt_free.exit.i
  %.0.i24.i = phi ptr [ @xor_xorhmacsha2sig_keymgmt_functions, %xor_prov_get_keymgmt_free.exit.i ], [ %12, %11 ]
  %10 = load i32, ptr %.0.i24.i, align 8, !tbaa !19
  switch i32 %10, label %11 [
    i32 0, label %xor_prov_import_key.exit
    i32 40, label %xor_prov_get_keymgmt_import.exit.i
  ]

11:                                               ; preds = %9
  %12 = getelementptr inbounds nuw i8, ptr %.0.i24.i, i64 16
  br label %9, !llvm.loop !66

xor_prov_get_keymgmt_import.exit.i:               ; preds = %9
  %13 = getelementptr i8, ptr %.0.i24.i, i64 8
  %.0.val.i25.i = load ptr, ptr %13, align 8, !tbaa !21
  %14 = icmp ne ptr %.0.val.i25.i, null
  %15 = icmp ne ptr %.05.i23.i, null
  %or.cond3.i = select i1 %14, i1 %15, i1 false
  br i1 %or.cond3.i, label %16, label %xor_prov_import_key.exit

16:                                               ; preds = %xor_prov_get_keymgmt_import.exit.i
  %17 = tail call noalias ptr @CRYPTO_zalloc(i64 noundef 88, ptr noundef nonnull @.str.2, i32 noundef 691) #16
  %18 = icmp eq ptr %17, null
  br i1 %18, label %xor_newkey.exit.thread, label %19

19:                                               ; preds = %16
  %20 = getelementptr inbounds nuw i8, ptr %17, i64 80
  store atomic i32 1, ptr %20 seq_cst, align 4, !tbaa !33
  %21 = tail call i32 %.0.val.i25.i(ptr noundef nonnull %17, i32 noundef %1, ptr noundef %2) #16
  %.not.i = icmp eq i32 %21, 0
  br i1 %.not.i, label %xor_newkey.exit.thread, label %xor_prov_import_key.exit

xor_newkey.exit.thread:                           ; preds = %16, %19
  tail call void %.05.i23.i(ptr noundef %17) #16
  br label %xor_prov_import_key.exit

xor_prov_import_key.exit:                         ; preds = %9, %xor_prov_get_keymgmt_import.exit.i, %19, %xor_newkey.exit.thread
  %.0.i = phi ptr [ null, %xor_newkey.exit.thread ], [ %17, %19 ], [ null, %xor_prov_get_keymgmt_import.exit.i ], [ null, %9 ]
  ret ptr %.0.i
}